target datalayout = "e-m:e-p270:32:32-p271:32:32-p272:64:64-i64:64-i128:128-f80:128-n8:16:32:64-S128"
target triple = "x86_64-pc-linux-gnu"

%"class.gmx::analysismodules::(anonymous namespace)::FreeVolume" = type { %"class.gmx::TrajectoryAnalysisModule", %"class.std::__cxx11::basic_string", %"class.gmx::Selection", %"class.gmx::AnalysisData", %"class.std::shared_ptr", i32, double, double, double, %"class.gmx::ThreeFry2x64Fast", i32, i32, %"class.gmx::AnalysisNeighborhood", %"class.std::vector" }
%"class.gmx::TrajectoryAnalysisModule" = type { ptr, %"class.std::unique_ptr.2" }
%"class.std::unique_ptr.2" = type { %"struct.std::__uniq_ptr_data.3" }
%"struct.std::__uniq_ptr_data.3" = type { %"class.std::__uniq_ptr_impl.4" }
%"class.std::__uniq_ptr_impl.4" = type { %"class.std::tuple.5" }
%"class.std::tuple.5" = type { %"struct.std::_Tuple_impl.6" }
%"struct.std::_Tuple_impl.6" = type { %"struct.std::_Head_base.9" }
%"struct.std::_Head_base.9" = type { ptr }
%"class.std::__cxx11::basic_string" = type { %"struct.std::__cxx11::basic_string<char>::_Alloc_hider", i64, %union.anon }
%"struct.std::__cxx11::basic_string<char>::_Alloc_hider" = type { ptr }
%union.anon = type { i64, [8 x i8] }
%"class.gmx::Selection" = type { ptr }
%"class.gmx::AnalysisData" = type { %"class.gmx::AbstractAnalysisData", %"class.std::unique_ptr.18" }
%"class.gmx::AbstractAnalysisData" = type { ptr, %"class.std::unique_ptr.10" }
%"class.std::unique_ptr.10" = type { %"struct.std::__uniq_ptr_data.11" }
%"struct.std::__uniq_ptr_data.11" = type { %"class.std::__uniq_ptr_impl.12" }
%"class.std::__uniq_ptr_impl.12" = type { %"class.std::tuple.13" }
%"class.std::tuple.13" = type { %"struct.std::_Tuple_impl.14" }
%"struct.std::_Tuple_impl.14" = type { %"struct.std::_Head_base.17" }
%"struct.std::_Head_base.17" = type { ptr }
%"class.std::unique_ptr.18" = type { %"struct.std::__uniq_ptr_data.19" }
%"struct.std::__uniq_ptr_data.19" = type { %"class.std::__uniq_ptr_impl.20" }
%"class.std::__uniq_ptr_impl.20" = type { %"class.std::tuple.21" }
%"class.std::tuple.21" = type { %"struct.std::_Tuple_impl.22" }
%"struct.std::_Tuple_impl.22" = type { %"struct.std::_Head_base.25" }
%"struct.std::_Head_base.25" = type { ptr }
%"class.std::shared_ptr" = type { %"class.std::__shared_ptr" }
%"class.std::__shared_ptr" = type { ptr, %"class.std::__shared_count" }
%"class.std::__shared_count" = type { ptr }
%"class.gmx::ThreeFry2x64Fast" = type { %"class.gmx::ThreeFry2x64General.base", [4 x i8] }
%"class.gmx::ThreeFry2x64General.base" = type <{ %"struct.std::array", %"struct.std::array", %"struct.std::array", i32 }>
%"struct.std::array" = type { [2 x i64] }
%"class.gmx::AnalysisNeighborhood" = type { %"class.std::unique_ptr.26" }
%"class.std::unique_ptr.26" = type { %"struct.std::__uniq_ptr_data.27" }
%"struct.std::__uniq_ptr_data.27" = type { %"class.std::__uniq_ptr_impl.28" }
%"class.std::__uniq_ptr_impl.28" = type { %"class.std::tuple.29" }
%"class.std::tuple.29" = type { %"struct.std::_Tuple_impl.30" }
%"struct.std::_Tuple_impl.30" = type { %"struct.std::_Head_base.33" }
%"struct.std::_Head_base.33" = type { ptr }
%"class.std::vector" = type { %"struct.std::_Vector_base" }
%"struct.std::_Vector_base" = type { %"struct.std::_Vector_base<double, std::allocator<double>>::_Vector_impl" }
%"struct.std::_Vector_base<double, std::allocator<double>>::_Vector_impl" = type { %"struct.std::_Vector_base<double, std::allocator<double>>::_Vector_impl_data" }
%"struct.std::_Vector_base<double, std::allocator<double>>::_Vector_impl_data" = type { ptr, ptr, ptr }

@.str.63 = private unnamed_addr constant [30 x i8] c"Free volume %.2f +/- %.2f %%\0A\00", align 1
@.str.64 = private unnamed_addr constant [33 x i8] c"Total volume %.2f +/- %.2f nm^3\0A\00", align 1
@.str.65 = private unnamed_addr constant [47 x i8] c"Number of molecules %d total mass %.2f Dalton\0A\00", align 1
@.str.66 = private unnamed_addr constant [33 x i8] c"Average molar mass: %.2f Dalton\0A\00", align 1
@.str.67 = private unnamed_addr constant [33 x i8] c"Density rho: %.2f +/- %.2f nm^3\0A\00", align 1
@.str.68 = private unnamed_addr constant [62 x i8] c"Molecular volume Vm assuming homogeneity: %.4f +/- %.4f nm^3\0A\00", align 1
@.str.69 = private unnamed_addr constant [74 x i8] c"Molecular van der Waals volume assuming homogeneity:  %.4f +/- %.4f nm^3\0A\00", align 1
@.str.70 = private unnamed_addr constant [38 x i8] c"Fractional free volume %.3f +/- %.3f\0A\00", align 1

; Function Attrs: mustprogress nounwind uwtable
define linkonce_odr noundef ptr @_ZNKSt12__shared_ptrIN3gmx25AnalysisDataAverageModuleELN9__gnu_cxx12_Lock_policyE2EE3getEv(ptr noundef nonnull align 8 dereferenceable(16) %0) #3 comdat align 2 {
  %2 = alloca ptr, align 8
  store ptr %0, ptr %2, align 8, !tbaa !92
  %3 = load ptr, ptr %2, align 8
  %4 = getelementptr inbounds nuw %"class.std::__shared_ptr", ptr %3, i32 0, i32 0
  %5 = load ptr, ptr %4, align 8, !tbaa !161
  ret ptr %5
}

; Function Attrs: mustprogress nounwind uwtable
define linkonce_odr noundef ptr @_ZNKSt19__shared_ptr_accessIN3gmx25AnalysisDataAverageModuleELN9__gnu_cxx12_Lock_policyE2ELb0ELb0EE6_M_getEv(ptr noundef nonnull align 1 dereferenceable(1) %0) #3 comdat align 2 {
  %2 = alloca ptr, align 8
  store ptr %0, ptr %2, align 8, !tbaa !484
  %3 = load ptr, ptr %2, align 8
  %4 = call noundef ptr @_ZNKSt12__shared_ptrIN3gmx25AnalysisDataAverageModuleELN9__gnu_cxx12_Lock_policyE2EE3getEv(ptr noundef nonnull align 8 dereferenceable(16) %3) #21
  ret ptr %4
}

; Function Attrs: mustprogress nounwind uwtable
define linkonce_odr noundef double @_ZN3gmx6squareIdEET_S1_(double noundef %0) #3 comdat {
  %2 = alloca double, align 8
  store double %0, ptr %2, align 8, !tbaa !131
  %3 = load double, ptr %2, align 8, !tbaa !131
  %4 = load double, ptr %2, align 8, !tbaa !131
  %5 = fmul double %3, %4
  ret double %5
}

; Function Attrs: mustprogress nounwind uwtable
define linkonce_odr noundef ptr @_ZNKSt19__shared_ptr_accessIN3gmx25AnalysisDataAverageModuleELN9__gnu_cxx12_Lock_policyE2ELb0ELb0EEptEv(ptr noundef nonnull align 1 dereferenceable(1) %0) #3 comdat align 2 {
  %2 = alloca ptr, align 8
  store ptr %0, ptr %2, align 8, !tbaa !484
  %3 = load ptr, ptr %2, align 8
  %4 = call noundef ptr @_ZNKSt19__shared_ptr_accessIN3gmx25AnalysisDataAverageModuleELN9__gnu_cxx12_Lock_policyE2ELb0ELb0EE6_M_getEv(ptr noundef nonnull align 1 dereferenceable(1) %3) #21
  ret ptr %4
}

; Function Attrs: mustprogress uwtable
define internal void @_ZN3gmx15analysismodules12_GLOBAL__N_110FreeVolume11writeOutputEv(ptr noundef nonnull align 8 dereferenceable(224) %0) unnamed_addr #0 align 2 {
  %2 = alloca ptr, align 8
  %3 = alloca double, align 8
  %4 = alloca double, align 8
  %5 = alloca double, align 8
  %6 = alloca double, align 8
  %7 = alloca double, align 8
  %8 = alloca double, align 8
  %9 = alloca double, align 8
  %10 = alloca double, align 8
  %11 = alloca double, align 8
  %12 = alloca double, align 8
  %13 = alloca double, align 8
  %14 = alloca double, align 8
  store ptr %0, ptr %2, align 8, !tbaa !4
  %15 = load ptr, ptr %2, align 8
  call void @llvm.lifetime.start.p0(i64 8, ptr %3) #21
  %16 = getelementptr inbounds nuw %"class.gmx::analysismodules::(anonymous namespace)::FreeVolume", ptr %15, i32 0, i32 4
  %17 = call noundef ptr @_ZNKSt19__shared_ptr_accessIN3gmx25AnalysisDataAverageModuleELN9__gnu_cxx12_Lock_policyE2ELb0ELb0EEptEv(ptr noundef nonnull align 1 dereferenceable(1) %16) #21
  %18 = call noundef float @_ZNK3gmx25AnalysisDataAverageModule7averageEii(ptr noundef nonnull align 8 dereferenceable(120) %17, i32 noundef 0, i32 noundef 0)
  %19 = fpext float %18 to double
  store double %19, ptr %3, align 8, !tbaa !131
  call void @llvm.lifetime.start.p0(i64 8, ptr %4) #21
  %20 = getelementptr inbounds nuw %"class.gmx::analysismodules::(anonymous namespace)::FreeVolume", ptr %15, i32 0, i32 4
  %21 = call noundef ptr @_ZNKSt19__shared_ptr_accessIN3gmx25AnalysisDataAverageModuleELN9__gnu_cxx12_Lock_policyE2ELb0ELb0EEptEv(ptr noundef nonnull align 1 dereferenceable(1) %20) #21
  %22 = call noundef float @_ZNK3gmx25AnalysisDataAverageModule17standardDeviationEii(ptr noundef nonnull align 8 dereferenceable(120) %21, i32 noundef 0, i32 noundef 0)
  %23 = fpext float %22 to double
  store double %23, ptr %4, align 8, !tbaa !131
  %24 = load double, ptr %3, align 8, !tbaa !131
  %25 = load double, ptr %4, align 8, !tbaa !131
  %26 = call i32 (ptr, ...) @printf(ptr noundef @.str.63, double noundef %24, double noundef %25)
  call void @llvm.lifetime.start.p0(i64 8, ptr %5) #21
  %27 = getelementptr inbounds nuw %"class.gmx::analysismodules::(anonymous namespace)::FreeVolume", ptr %15, i32 0, i32 4
  %28 = call noundef ptr @_ZNKSt19__shared_ptr_accessIN3gmx25AnalysisDataAverageModuleELN9__gnu_cxx12_Lock_policyE2ELb0ELb0EEptEv(ptr noundef nonnull align 1 dereferenceable(1) %27) #21
  %29 = call noundef float @_ZNK3gmx25AnalysisDataAverageModule7averageEii(ptr noundef nonnull align 8 dereferenceable(120) %28, i32 noundef 0, i32 noundef 1)
  %30 = fpext float %29 to double
  store double %30, ptr %5, align 8, !tbaa !131
  call void @llvm.lifetime.start.p0(i64 8, ptr %6) #21
  %31 = getelementptr inbounds nuw %"class.gmx::analysismodules::(anonymous namespace)::FreeVolume", ptr %15, i32 0, i32 4
  %32 = call noundef ptr @_ZNKSt19__shared_ptr_accessIN3gmx25AnalysisDataAverageModuleELN9__gnu_cxx12_Lock_policyE2ELb0ELb0EEptEv(ptr noundef nonnull align 1 dereferenceable(1) %31) #21
  %33 = call noundef float @_ZNK3gmx25AnalysisDataAverageModule17standardDeviationEii(ptr noundef nonnull align 8 dereferenceable(120) %32, i32 noundef 0, i32 noundef 1)
  %34 = fpext float %33 to double
  store double %34, ptr %6, align 8, !tbaa !131
  %35 = load double, ptr %5, align 8, !tbaa !131
  %36 = load double, ptr %6, align 8, !tbaa !131
  %37 = call i32 (ptr, ...) @printf(ptr noundef @.str.64, double noundef %35, double noundef %36)
  %38 = getelementptr inbounds nuw %"class.gmx::analysismodules::(anonymous namespace)::FreeVolume", ptr %15, i32 0, i32 5
  %39 = load i32, ptr %38, align 8, !tbaa !11
  %40 = getelementptr inbounds nuw %"class.gmx::analysismodules::(anonymous namespace)::FreeVolume", ptr %15, i32 0, i32 6
  %41 = load double, ptr %40, align 8, !tbaa !66
  %42 = call i32 (ptr, ...) @printf(ptr noundef @.str.65, i32 noundef %39, double noundef %41)
  call void @llvm.lifetime.start.p0(i64 8, ptr %7) #21
  %43 = getelementptr inbounds nuw %"class.gmx::analysismodules::(anonymous namespace)::FreeVolume", ptr %15, i32 0, i32 6
  %44 = load double, ptr %43, align 8, !tbaa !66
  %45 = load double, ptr %5, align 8, !tbaa !131
  %46 = fmul double %45, 0x3AF357C299A88EA7
  %47 = fmul double %46, 0x44DFE185CA57C517
  %48 = fdiv double %44, %47
  store double %48, ptr %7, align 8, !tbaa !131
  call void @llvm.lifetime.start.p0(i64 8, ptr %8) #21
  %49 = load double, ptr %7, align 8, !tbaa !131
  %50 = load double, ptr %5, align 8, !tbaa !131
  %51 = fdiv double %49, %50
  %52 = call noundef double @_ZN3gmx6squareIdEET_S1_(double noundef %51)
  %53 = load double, ptr %6, align 8, !tbaa !131
  %54 = fmul double %52, %53
  store double %54, ptr %8, align 8, !tbaa !131
  %55 = getelementptr inbounds nuw %"class.gmx::analysismodules::(anonymous namespace)::FreeVolume", ptr %15, i32 0, i32 6
  %56 = load double, ptr %55, align 8, !tbaa !66
  %57 = getelementptr inbounds nuw %"class.gmx::analysismodules::(anonymous namespace)::FreeVolume", ptr %15, i32 0, i32 5
  %58 = load i32, ptr %57, align 8, !tbaa !11
  %59 = sitofp i32 %58 to double
  %60 = fdiv double %56, %59
  %61 = call i32 (ptr, ...) @printf(ptr noundef @.str.66, double noundef %60)
  call void @llvm.lifetime.start.p0(i64 8, ptr %9) #21
  %62 = load double, ptr %5, align 8, !tbaa !131
  %63 = getelementptr inbounds nuw %"class.gmx::analysismodules::(anonymous namespace)::FreeVolume", ptr %15, i32 0, i32 5
  %64 = load i32, ptr %63, align 8, !tbaa !11
  %65 = sitofp i32 %64 to double
  %66 = fdiv double %62, %65
  store double %66, ptr %9, align 8, !tbaa !131
  call void @llvm.lifetime.start.p0(i64 8, ptr %10) #21
  %67 = load double, ptr %6, align 8, !tbaa !131
  %68 = getelementptr inbounds nuw %"class.gmx::analysismodules::(anonymous namespace)::FreeVolume", ptr %15, i32 0, i32 5
  %69 = load i32, ptr %68, align 8, !tbaa !11
  %70 = sitofp i32 %69 to double
  %71 = fdiv double %67, %70
  store double %71, ptr %10, align 8, !tbaa !131
  %72 = load double, ptr %7, align 8, !tbaa !131
  %73 = load double, ptr %8, align 8, !tbaa !131
  %74 = call i32 (ptr, ...) @printf(ptr noundef @.str.67, double noundef %72, double noundef %73)
  %75 = load double, ptr %9, align 8, !tbaa !131
  %76 = load double, ptr %10, align 8, !tbaa !131
  %77 = call i32 (ptr, ...) @printf(ptr noundef @.str.68, double noundef %75, double noundef %76)
  call void @llvm.lifetime.start.p0(i64 8, ptr %11) #21
  %78 = load double, ptr %3, align 8, !tbaa !131
  %79 = fdiv double %78, 1.000000e+02
  %80 = fsub double 1.000000e+00, %79
  %81 = load double, ptr %9, align 8, !tbaa !131
  %82 = fmul double %80, %81
  store double %82, ptr %11, align 8, !tbaa !131
  call void @llvm.lifetime.start.p0(i64 8, ptr %12) #21
  store double 0.000000e+00, ptr %12, align 8, !tbaa !131
  %83 = load double, ptr %11, align 8, !tbaa !131
  %84 = load double, ptr %12, align 8, !tbaa !131
  %85 = call i32 (ptr, ...) @printf(ptr noundef @.str.69, double noundef %83, double noundef %84)
  call void @llvm.lifetime.start.p0(i64 8, ptr %13) #21
  %86 = load double, ptr %3, align 8, !tbaa !131
  %87 = fsub double 1.000000e+02, %86
  %88 = fdiv double %87, 1.000000e+02
  %89 = call double @llvm.fmuladd.f64(double -1.300000e+00, double %88, double 1.000000e+00)
  store double %89, ptr %13, align 8, !tbaa !131
  call void @llvm.lifetime.start.p0(i64 8, ptr %14) #21
  %90 = load double, ptr %4, align 8, !tbaa !131
  %91 = load double, ptr %3, align 8, !tbaa !131
  %92 = fdiv double %90, %91
  %93 = load double, ptr %13, align 8, !tbaa !131
  %94 = fmul double %92, %93
  store double %94, ptr %14, align 8, !tbaa !131
  %95 = load double, ptr %13, align 8, !tbaa !131
  %96 = load double, ptr %14, align 8, !tbaa !131
  %97 = call i32 (ptr, ...) @printf(ptr noundef @.str.70, double noundef %95, double noundef %96)
  call void @llvm.lifetime.end.p0(i64 8, ptr %14) #21
  call void @llvm.lifetime.end.p0(i64 8, ptr %13) #21
  call void @llvm.lifetime.end.p0(i64 8, ptr %12) #21
  call void @llvm.lifetime.end.p0(i64 8, ptr %11) #21
  call void @llvm.lifetime.end.p0(i64 8, ptr %10) #21
  call void @llvm.lifetime.end.p0(i64 8, ptr %9) #21
  call void @llvm.lifetime.end.p0(i64 8, ptr %8) #21
  call void @llvm.lifetime.end.p0(i64 8, ptr %7) #21
  call void @llvm.lifetime.end.p0(i64 8, ptr %6) #21
  call void @llvm.lifetime.end.p0(i64 8, ptr %5) #21
  call void @llvm.lifetime.end.p0(i64 8, ptr %4) #21
  call void @llvm.lifetime.end.p0(i64 8, ptr %3) #21
  ret void
}