; Function Attrs: mustprogress uwtable
define internal void @_ZN3gmx15analysismodules12_GLOBAL__N_110FreeVolume11writeOutputEv(ptr noundef nonnull readonly align 8 captures(none) dereferenceable(224) %0) unnamed_addr #0 align 2 {
  %2 = getelementptr inbounds nuw i8, ptr %0, i64 80
  %3 = load ptr, ptr %2, align 8, !tbaa !19
  %4 = tail call noundef float @_ZNK3gmx25AnalysisDataAverageModule7averageEii(ptr noundef nonnull align 8 dereferenceable(120) %3, i32 noundef 0, i32 noundef 0)
  %5 = fpext float %4 to double
  %6 = load ptr, ptr %2, align 8, !tbaa !19
  %7 = tail call noundef float @_ZNK3gmx25AnalysisDataAverageModule17standardDeviationEii(ptr noundef nonnull align 8 dereferenceable(120) %6, i32 noundef 0, i32 noundef 0)
  %8 = fpext float %7 to double
  %9 = tail call i32 (ptr, ...) @printf(ptr noundef nonnull dereferenceable(1) @.str.63, double noundef %5, double noundef %8)
  %10 = load ptr, ptr %2, align 8, !tbaa !19
  %11 = tail call noundef float @_ZNK3gmx25AnalysisDataAverageModule7averageEii(ptr noundef nonnull align 8 dereferenceable(120) %10, i32 noundef 0, i32 noundef 1)
  %12 = fpext float %11 to double
  %13 = load ptr, ptr %2, align 8, !tbaa !19
  %14 = tail call noundef float @_ZNK3gmx25AnalysisDataAverageModule17standardDeviationEii(ptr noundef nonnull align 8 dereferenceable(120) %13, i32 noundef 0, i32 noundef 1)
  %15 = fpext float %14 to double
  %16 = tail call i32 (ptr, ...) @printf(ptr noundef nonnull dereferenceable(1) @.str.64, double noundef %12, double noundef %15)
  %17 = getelementptr inbounds nuw i8, ptr %0, i64 96
  %18 = load i32, ptr %17, align 8, !tbaa !40
  %19 = getelementptr inbounds nuw i8, ptr %0, i64 104
  %20 = load double, ptr %19, align 8, !tbaa !135
  %21 = tail call i32 (ptr, ...) @printf(ptr noundef nonnull dereferenceable(1) @.str.65, i32 noundef %18, double noundef %20)
  %22 = load double, ptr %19, align 8, !tbaa !135
  %23 = fmul double %12, 0x3AF357C299A88EA7
  %24 = fmul double %23, 0x44DFE185CA57C517
  %25 = fdiv double %22, %24
  %26 = fdiv double %25, %12
  %27 = fmul double %26, %26
  %28 = fmul double %27, %15
  %29 = load i32, ptr %17, align 8, !tbaa !40
  %30 = sitofp i32 %29 to double
  %31 = fdiv double %22, %30
  %32 = tail call i32 (ptr, ...) @printf(ptr noundef nonnull dereferenceable(1) @.str.66, double noundef %31)
  %33 = load i32, ptr %17, align 8, !tbaa !40
  %34 = sitofp i32 %33 to double
  %35 = fdiv double %12, %34
  %36 = fdiv double %15, %34
  %37 = tail call i32 (ptr, ...) @printf(ptr noundef nonnull dereferenceable(1) @.str.67, double noundef %25, double noundef %28)
  %38 = tail call i32 (ptr, ...) @printf(ptr noundef nonnull dereferenceable(1) @.str.68, double noundef %35, double noundef %36)
  %39 = fdiv double %5, 1.000000e+02
  %40 = fsub double 1.000000e+00, %39
  %41 = fmul double %40, %35
  %42 = tail call i32 (ptr, ...) @printf(ptr noundef nonnull dereferenceable(1) @.str.69, double noundef %41, double noundef 0.000000e+00)
  %43 = fsub double 1.000000e+02, %5
  %44 = fdiv double %43, 1.000000e+02
  %45 = tail call double @llvm.fmuladd.f64(double %44, double -1.300000e+00, double 1.000000e+00)
  %46 = fdiv double %8, %5
  %47 = fmul double %46, %45
  %48 = tail call i32 (ptr, ...) @printf(ptr noundef nonnull dereferenceable(1) @.str.70, double noundef %45, double noundef %47)
  ret void
}